; Function Attrs: nounwind uwtable
define dso_local void @write_file(ptr noundef %0, ptr noundef %1, ...) local_unnamed_addr #0 {
  %3 = alloca [1 x %struct.__va_list_tag], align 16
  %4 = alloca %struct.strbuf, align 8
  call void @llvm.lifetime.start.p0(i64 24, ptr nonnull %3) #20
  call void @llvm.lifetime.start.p0(i64 24, ptr nonnull %4) #20
  call void @llvm.memcpy.p0.p0.i64(ptr noundef nonnull align 8 dereferenceable(24) %4, ptr noundef nonnull align 8 dereferenceable(24) @__const.write_file.sb, i64 24, i1 false)
  call void @llvm.va_start.p0(ptr nonnull %3)
  call void @strbuf_vaddf(ptr noundef nonnull %4, ptr noundef %1, ptr noundef nonnull %3) #20
  call void @llvm.va_end.p0(ptr nonnull %3)
  %5 = getelementptr inbounds nuw i8, ptr %4, i64 8
  %6 = load i64, ptr %5, align 8, !tbaa !23
  %.not.i.i = icmp eq i64 %6, 0
  br i1 %.not.i.i, label %strbuf_complete_line.exit, label %7

7:                                                ; preds = %2
  %8 = getelementptr inbounds nuw i8, ptr %4, i64 16
  %9 = load ptr, ptr %8, align 8, !tbaa !27
  %10 = getelementptr i8, ptr %9, i64 %6
  %11 = getelementptr i8, ptr %10, i64 -1
  %12 = load i8, ptr %11, align 1, !tbaa !8
  %.not6.i.i = icmp eq i8 %12, 10
  br i1 %.not6.i.i, label %strbuf_complete_line.exit, label %13

13:                                               ; preds = %7
  %14 = load i64, ptr %4, align 8, !tbaa !28
  %.not.i.i.i.i = icmp eq i64 %14, 0
  %.neg.i.i.i = add i64 %6, 1
  %.not.i.i.i = icmp eq i64 %14, %.neg.i.i.i
  %or.cond.i.i = or i1 %.not.i.i.i.i, %.not.i.i.i
  br i1 %or.cond.i.i, label %strbuf_avail.exit.thread.i.i.i, label %strbuf_addch.exit.i.i

strbuf_avail.exit.thread.i.i.i:                   ; preds = %13
  call void @strbuf_grow(ptr noundef nonnull %4, i64 noundef 1) #20
  %.pre.i.i.i = load i64, ptr %5, align 8, !tbaa !23
  %.pre7.i.i.i = add i64 %.pre.i.i.i, 1
  %.pre.i.i = load ptr, ptr %8, align 8, !tbaa !27
  br label %strbuf_addch.exit.i.i

strbuf_addch.exit.i.i:                            ; preds = %strbuf_avail.exit.thread.i.i.i, %13
  %15 = phi ptr [ %.pre.i.i, %strbuf_avail.exit.thread.i.i.i ], [ %9, %13 ]
  %.pre-phi.i.i.i = phi i64 [ %.pre7.i.i.i, %strbuf_avail.exit.thread.i.i.i ], [ %.neg.i.i.i, %13 ]
  %16 = phi i64 [ %.pre.i.i.i, %strbuf_avail.exit.thread.i.i.i ], [ %6, %13 ]
  store i64 %.pre-phi.i.i.i, ptr %5, align 8, !tbaa !23
  %17 = getelementptr inbounds nuw i8, ptr %15, i64 %16
  store i8 10, ptr %17, align 1, !tbaa !8
  %18 = load ptr, ptr %8, align 8, !tbaa !27
  %19 = load i64, ptr %5, align 8, !tbaa !23
  %20 = getelementptr inbounds nuw i8, ptr %18, i64 %19
  store i8 0, ptr %20, align 1, !tbaa !8
  %.pre = load i64, ptr %5, align 8, !tbaa !23
  br label %strbuf_complete_line.exit

strbuf_complete_line.exit:                        ; preds = %2, %7, %strbuf_addch.exit.i.i
  %21 = phi i64 [ 0, %2 ], [ %6, %7 ], [ %.pre, %strbuf_addch.exit.i.i ]
  %22 = getelementptr inbounds nuw i8, ptr %4, i64 16
  %23 = load ptr, ptr %22, align 8, !tbaa !27
  call void @write_file_buf(ptr noundef %0, ptr noundef %23, i64 noundef %21)
  call void @strbuf_release(ptr noundef nonnull %4) #20
  call void @llvm.lifetime.end.p0(i64 24, ptr nonnull %4) #20
  call void @llvm.lifetime.end.p0(i64 24, ptr nonnull %3) #20
  ret void
}